; Function Attrs: mustprogress uwtable
define hidden void @_ZNK3smt15fingerprint_set7displayERSo(ptr nocapture noundef nonnull readonly align 8 dereferenceable(112) %this, ptr noundef nonnull align 8 dereferenceable(8) %out) local_unnamed_addr #3 align 2 {
entry:
  %call = tail call noundef nonnull align 8 dereferenceable(8) ptr @_ZStlsISt11char_traitsIcEERSt13basic_ostreamIcT_ES5_PKc(ptr noundef nonnull align 8 dereferenceable(8) %out, ptr noundef nonnull @.str.8)
  %m_fingerprints = getelementptr inbounds i8, ptr %this, i64 32
  %0 = load ptr, ptr %m_fingerprints, align 8
  %cmp.i.i = icmp eq ptr %0, null
  br i1 %cmp.i.i, label %for.end, label %_ZNK6vectorIPN3smt11fingerprintELb0EjE3endEv.exit

_ZNK6vectorIPN3smt11fingerprintELb0EjE3endEv.exit: ; preds = %entry
  %arrayidx.i.i = getelementptr inbounds i8, ptr %0, i64 -4
  %1 = load i32, ptr %arrayidx.i.i, align 4
  %2 = zext i32 %1 to i64
  %add.ptr.i = getelementptr inbounds ptr, ptr %0, i64 %2
  %cmp.not6 = icmp eq i32 %1, 0
  br i1 %cmp.not6, label %for.end, label %for.body

for.body:                                         ; preds = %_ZNK6vectorIPN3smt11fingerprintELb0EjE3endEv.exit, %for.body
  %__begin1.07 = phi ptr [ %incdec.ptr, %for.body ], [ %0, %_ZNK6vectorIPN3smt11fingerprintELb0EjE3endEv.exit ]
  %3 = load ptr, ptr %__begin1.07, align 8
  %4 = load ptr, ptr %3, align 8
  %call5 = tail call noundef nonnull align 8 dereferenceable(8) ptr @_ZNSolsEPKv(ptr noundef nonnull align 8 dereferenceable(8) %out, ptr noundef %4)
  %call6 = tail call noundef nonnull align 8 dereferenceable(8) ptr @_ZStlsISt11char_traitsIcEERSt13basic_ostreamIcT_ES5_PKc(ptr noundef nonnull align 8 dereferenceable(8) %call5, ptr noundef nonnull @.str)
  %call7 = tail call noundef nonnull align 8 dereferenceable(8) ptr @_ZN3smtlsERSoRKNS_11fingerprintE(ptr noundef nonnull align 8 dereferenceable(8) %call6, ptr noundef nonnull align 8 dereferenceable(40) %3)
  %incdec.ptr = getelementptr inbounds i8, ptr %__begin1.07, i64 8
  %cmp.not = icmp eq ptr %incdec.ptr, %add.ptr.i
  br i1 %cmp.not, label %for.end, label %for.body

for.end:                                          ; preds = %for.body, %entry, %_ZNK6vectorIPN3smt11fingerprintELb0EjE3endEv.exit
  ret void
}